target datalayout = "e-m:e-p270:32:32-p271:32:32-p272:64:64-i64:64-i128:128-f80:128-n8:16:32:64-S128"
target triple = "x86_64-pc-linux-gnu"

%class.LIR_Opr = type { i64 }
%class.GrowableArrayBase = type { i32, i32 }
%class.GrowableArrayMetadata = type { i64 }
%class.Interval = type { i32, i8, ptr, %class.GrowableArray.21, ptr, ptr, i32, i32, i32, i32, %class.LIR_Opr, ptr, ptr, ptr, ptr, i32, i8, i32, i32, ptr }
%class.GrowableArray.21 = type { %class.GrowableArrayWithAllocator.22, %class.GrowableArrayMetadata }
%class.GrowableArrayWithAllocator.22 = type { %class.GrowableArrayView.23 }
%class.GrowableArrayView.23 = type { %class.GrowableArrayBase, ptr }

; Function Attrs: mustprogress nounwind uwtable
define linkonce_odr hidden noundef nonnull align 4 dereferenceable(4) ptr @_ZNK17GrowableArrayViewIiE2atEi(ptr noundef nonnull align 8 dereferenceable(16) %0, i32 noundef %1) #1 comdat align 2 {
  %3 = alloca ptr, align 8
  %4 = alloca i32, align 4
  store ptr %0, ptr %3, align 8
  store i32 %1, ptr %4, align 4
  %5 = load ptr, ptr %3, align 8
  %6 = getelementptr inbounds %class.GrowableArrayView.23, ptr %5, i32 0, i32 1
  %7 = load ptr, ptr %6, align 8
  %8 = load i32, ptr %4, align 4
  %9 = sext i32 %8 to i64
  %10 = getelementptr inbounds i32, ptr %7, i64 %9
  ret ptr %10
}

; Function Attrs: mustprogress nounwind uwtable
define linkonce_odr hidden noundef i32 @_ZNK17GrowableArrayBase6lengthEv(ptr noundef nonnull align 4 dereferenceable(8) %0) #1 comdat align 2 {
  %2 = alloca ptr, align 8
  store ptr %0, ptr %2, align 8
  %3 = load ptr, ptr %2, align 8
  %4 = getelementptr inbounds %class.GrowableArrayBase, ptr %3, i32 0, i32 0
  %5 = load i32, ptr %4, align 4
  ret i32 %5
}

; Function Attrs: mustprogress nounwind uwtable
define hidden noundef i32 @_ZNK8Interval10next_usageE15IntervalUseKindi(ptr noundef nonnull align 8 dereferenceable(136) %0, i32 noundef %1, i32 noundef %2) #1 align 2 {
  %4 = alloca i32, align 4
  %5 = alloca ptr, align 8
  %6 = alloca i32, align 4
  %7 = alloca i32, align 4
  %8 = alloca i32, align 4
  store ptr %0, ptr %5, align 8
  store i32 %1, ptr %6, align 4
  store i32 %2, ptr %7, align 4
  %9 = load ptr, ptr %5, align 8
  %10 = getelementptr inbounds %class.Interval, ptr %9, i32 0, i32 3
  %11 = call noundef i32 @_ZNK17GrowableArrayBase6lengthEv(ptr noundef nonnull align 4 dereferenceable(8) %10)
  %12 = sub nsw i32 %11, 2
  store i32 %12, ptr %8, align 4
  br label %13

13:                                               ; preds = %37, %3
  %14 = load i32, ptr %8, align 4
  %15 = icmp sge i32 %14, 0
  br i1 %15, label %16, label %40

16:                                               ; preds = %13
  %17 = getelementptr inbounds %class.Interval, ptr %9, i32 0, i32 3
  %18 = load i32, ptr %8, align 4
  %19 = call noundef nonnull align 4 dereferenceable(4) ptr @_ZNK17GrowableArrayViewIiE2atEi(ptr noundef nonnull align 8 dereferenceable(16) %17, i32 noundef %18)
  %20 = load i32, ptr %19, align 4
  %21 = load i32, ptr %7, align 4
  %22 = icmp sge i32 %20, %21
  br i1 %22, label %23, label %36

23:                                               ; preds = %16
  %24 = getelementptr inbounds %class.Interval, ptr %9, i32 0, i32 3
  %25 = load i32, ptr %8, align 4
  %26 = add nsw i32 %25, 1
  %27 = call noundef nonnull align 4 dereferenceable(4) ptr @_ZNK17GrowableArrayViewIiE2atEi(ptr noundef nonnull align 8 dereferenceable(16) %24, i32 noundef %26)
  %28 = load i32, ptr %27, align 4
  %29 = load i32, ptr %6, align 4
  %30 = icmp sge i32 %28, %29
  br i1 %30, label %31, label %36

31:                                               ; preds = %23
  %32 = getelementptr inbounds %class.Interval, ptr %9, i32 0, i32 3
  %33 = load i32, ptr %8, align 4
  %34 = call noundef nonnull align 4 dereferenceable(4) ptr @_ZNK17GrowableArrayViewIiE2atEi(ptr noundef nonnull align 8 dereferenceable(16) %32, i32 noundef %33)
  %35 = load i32, ptr %34, align 4
  store i32 %35, ptr %4, align 4
  br label %41

36:                                               ; preds = %23, %16
  br label %37

37:                                               ; preds = %36
  %38 = load i32, ptr %8, align 4
  %39 = sub nsw i32 %38, 2
  store i32 %39, ptr %8, align 4
  br label %13, !llvm.loop !93

40:                                               ; preds = %13
  store i32 2147483647, ptr %4, align 4
  br label %41

41:                                               ; preds = %40, %31
  %42 = load i32, ptr %4, align 4
  ret i32 %42
}