; Function Attrs: mustprogress nofree norecurse nosync nounwind willreturn memory(read, inaccessiblemem: none) uwtable
define hidden noundef i32 @_ZNK8Interval10next_usageE15IntervalUseKindi(ptr nocapture noundef nonnull readonly align 8 dereferenceable(136) %0, i32 noundef %1, i32 noundef %2) local_unnamed_addr #6 align 2 {
  %4 = getelementptr inbounds i8, ptr %0, i64 16
  %5 = load i32, ptr %4, align 8
  %6 = icmp sgt i32 %5, 1
  br i1 %6, label %.lr.ph, label %._crit_edge

.lr.ph:                                           ; preds = %3
  %7 = getelementptr inbounds i8, ptr %0, i64 24
  %8 = load ptr, ptr %7, align 8
  %invariant.gep = getelementptr i8, ptr %8, i64 -4
  %9 = zext nneg i32 %5 to i64
  br label %10

10:                                               ; preds = %.lr.ph, %15
  %indvars.iv = phi i64 [ %9, %.lr.ph ], [ %indvars.iv.next, %15 ]
  %indvars.iv.next = add nsw i64 %indvars.iv, -2
  %11 = getelementptr inbounds i32, ptr %8, i64 %indvars.iv.next
  %12 = load i32, ptr %11, align 4
  %.not = icmp slt i32 %12, %2
  br i1 %.not, label %15, label %13

13:                                               ; preds = %10
  %gep = getelementptr i32, ptr %invariant.gep, i64 %indvars.iv
  %14 = load i32, ptr %gep, align 4
  %.not9 = icmp slt i32 %14, %1
  br i1 %.not9, label %15, label %._crit_edge

15:                                               ; preds = %10, %13
  %16 = icmp ugt i64 %indvars.iv, 3
  br i1 %16, label %10, label %._crit_edge, !llvm.loop !100

._crit_edge:                                      ; preds = %15, %13, %3
  %.08 = phi i32 [ 2147483647, %3 ], [ %12, %13 ], [ 2147483647, %15 ]
  ret i32 %.08
}